(dp0
S'\n'
p1
I0
sS'!'
p2
I2
sS' '
p3
I1
sS"'"
p4
I3
sS')'
p5
I5
sS'('
p6
I4
sS'-'
p7
I7
sS','
p8
I6
sS'.'
p9
I8
sS'1'
p10
I10
sS'0'
p11
I9
sS'3'
p12
I12
sS'2'
p13
I11
sS'5'
p14
I14
sS'4'
p15
I13
sS'7'
p16
I16
sS'6'
p17
I15
sS'9'
p18
I18
sS'8'
p19
I17
sS';'
p20
I20
sS':'
p21
I19
sS'?'
p22
I21
sS'A'
p23
I22
sS'C'
p24
I24
sS'B'
p25
I23
sS'E'
p26
I26
sS'D'
p27
I25
sS'G'
p28
I28
sS'F'
p29
I27
sS'I'
p30
I30
sS'H'
p31
I29
sS'K'
p32
I32
sS'J'
p33
I31
sS'M'
p34
I34
sS'L'
p35
I33
sS'O'
p36
I36
sS'N'
p37
I35
sS'P'
p38
I37
sS'S'
p39
I39
sS'R'
p40
I38
sS'U'
p41
I41
sS'T'
p42
I40
sS'W'
p43
I43
sS'V'
p44
I42
sS'Y'
p45
I44
sS'a'
p46
I45
sS'c'
p47
I47
sS'b'
p48
I46
sS'e'
p49
I49
sS'd'
p50
I48
sS'g'
p51
I51
sS'f'
p52
I50
sS'i'
p53
I53
sS'h'
p54
I52
sS'k'
p55
I55
sS'j'
p56
I54
sS'm'
p57
I57
sS'l'
p58
I56
sS'o'
p59
I59
sS'n'
p60
I58
sS'q'
p61
I61
sS'p'
p62
I60
sS's'
p63
I63
sS'r'
p64
I62
sS'u'
p65
I65
sS't'
p66
I64
sS'w'
p67
I67
sS'v'
p68
I66
sS'y'
p69
I69
sS'x'
p70
I68
sS'z'
p71
I70
s.