(dp0
I0
S' '
p1
sI1
S"'"
p2
sI2
S'-'
p3
sI3
S'a'
p4
sI4
S'b'
p5
sI5
S'c'
p6
sI6
S'd'
p7
sI7
S'e'
p8
sI8
S'f'
p9
sI9
S'g'
p10
sI10
S'h'
p11
sI11
S'i'
p12
sI12
S'j'
p13
sI13
S'k'
p14
sI14
S'l'
p15
sI15
S'm'
p16
sI16
S'n'
p17
sI17
S'o'
p18
sI18
S'p'
p19
sI19
S'q'
p20
sI20
S'r'
p21
sI21
S's'
p22
sI22
S't'
p23
sI23
S'u'
p24
sI24
S'v'
p25
sI25
S'w'
p26
sI26
S'x'
p27
sI27
S'y'
p28
sI28
S'z'
p29
s.